; ModuleID = 'bench/openjdk/original/xErrno.ll'
source_filename = "bench/openjdk/original/xErrno.ll"
target datalayout = "e-m:e-p270:32:32-p271:32:32-p272:64:64-i64:64-i128:128-f80:128-n8:16:32:64-S128"
target triple = "x86_64-pc-linux-gnu"

@llvm.global_ctors = appending global [0 x { i32, ptr, ptr }] zeroinitializer

@_ZN6XErrnoC1Ev = hidden unnamed_addr alias void (ptr), ptr @_ZN6XErrnoC2Ev
@_ZN6XErrnoC1Ei = hidden unnamed_addr alias void (ptr, i32), ptr @_ZN6XErrnoC2Ei

; Function Attrs: mustprogress nofree nosync nounwind willreturn memory(read, argmem: readwrite, inaccessiblemem: none) uwtable
define hidden void @_ZN6XErrnoC2Ev(ptr nocapture noundef nonnull writeonly align 4 dereferenceable(4) %0) unnamed_addr #0 align 2 {
  %2 = tail call ptr @__errno_location() #6
  %3 = load i32, ptr %2, align 4
  store i32 %3, ptr %0, align 4
  ret void
}

; Function Attrs: mustprogress nofree nosync nounwind willreturn memory(none)
declare ptr @__errno_location() local_unnamed_addr #1

; Function Attrs: mustprogress nofree norecurse nosync nounwind willreturn memory(argmem: write) uwtable
define hidden void @_ZN6XErrnoC2Ei(ptr nocapture noundef nonnull writeonly align 4 dereferenceable(4) %0, i32 noundef %1) unnamed_addr #2 align 2 {
  store i32 %1, ptr %0, align 4
  ret void
}

; Function Attrs: mustprogress nofree norecurse nosync nounwind willreturn memory(argmem: read) uwtable
define hidden noundef zeroext i1 @_ZNK6XErrnocvbEv(ptr nocapture noundef nonnull readonly align 4 dereferenceable(4) %0) local_unnamed_addr #3 align 2 {
  %2 = load i32, ptr %0, align 4
  %3 = icmp ne i32 %2, 0
  ret i1 %3
}

; Function Attrs: mustprogress nofree norecurse nosync nounwind willreturn memory(argmem: read) uwtable
define hidden noundef zeroext i1 @_ZNK6XErrnoeqEi(ptr nocapture noundef nonnull readonly align 4 dereferenceable(4) %0, i32 noundef %1) local_unnamed_addr #3 align 2 {
  %3 = load i32, ptr %0, align 4
  %4 = icmp eq i32 %3, %1
  ret i1 %4
}

; Function Attrs: mustprogress nofree norecurse nosync nounwind willreturn memory(argmem: read) uwtable
define hidden noundef zeroext i1 @_ZNK6XErrnoneEi(ptr nocapture noundef nonnull readonly align 4 dereferenceable(4) %0, i32 noundef %1) local_unnamed_addr #3 align 2 {
  %3 = load i32, ptr %0, align 4
  %4 = icmp ne i32 %3, %1
  ret i1 %4
}

; Function Attrs: mustprogress nounwind uwtable
define hidden noundef ptr @_ZNK6XErrno9to_stringEv(ptr nocapture noundef nonnull readonly align 4 dereferenceable(4) %0) local_unnamed_addr #4 align 2 {
  %2 = load i32, ptr %0, align 4
  %3 = tail call noundef ptr @_ZN2os8strerrorEi(i32 noundef %2) #7
  ret ptr %3
}

declare noundef ptr @_ZN2os8strerrorEi(i32 noundef) local_unnamed_addr #5


!llvm.module.flags = !{!0, !1, !2, !3, !4, !5}

!0 = !{i32 7, !"Dwarf Version", i32 5}
!1 = !{i32 2, !"Debug Info Version", i32 3}
!2 = !{i32 1, !"wchar_size", i32 4}
!3 = !{i32 8, !"PIC Level", i32 2}
!4 = !{i32 7, !"uwtable", i32 2}
!5 = !{i32 7, !"frame-pointer", i32 2}
